target datalayout = "e-m:e-p270:32:32-p271:32:32-p272:64:64-i64:64-i128:128-f80:128-n8:16:32:64-S128"
target triple = "x86_64-pc-linux-gnu"

%struct.dtTileCacheObstacle = type { %union.anon, [8 x i32], [8 x i32], i16, i8, i8, i8, i8, ptr }
%union.anon = type { %struct.dtObstacleOrientedBox }
%struct.dtObstacleOrientedBox = type { [3 x float], [3 x float], [2 x float] }
%struct.dtObstacleCylinder = type { [3 x float], float, float }
%struct.dtObstacleBox = type { [3 x float], [3 x float] }

; Function Attrs: mustprogress nounwind uwtable
define linkonce_odr noundef float @_Z5dtMaxIfET_S0_S0_(float noundef %0, float noundef %1) #2 comdat {
  %3 = alloca float, align 4
  %4 = alloca float, align 4
  store float %0, ptr %3, align 4
  store float %1, ptr %4, align 4
  %5 = load float, ptr %3, align 4
  %6 = load float, ptr %4, align 4
  %7 = fcmp ogt float %5, %6
  br i1 %7, label %8, label %10

8:                                                ; preds = %2
  %9 = load float, ptr %3, align 4
  br label %12

10:                                               ; preds = %2
  %11 = load float, ptr %4, align 4
  br label %12

12:                                               ; preds = %10, %8
  %13 = phi float [ %9, %8 ], [ %11, %10 ]
  ret float %13
}

; Function Attrs: mustprogress nounwind uwtable
define linkonce_odr void @_Z7dtVcopyPfPKf(ptr noundef %0, ptr noundef %1) #2 comdat {
  %3 = alloca ptr, align 8
  %4 = alloca ptr, align 8
  store ptr %0, ptr %3, align 8
  store ptr %1, ptr %4, align 8
  %5 = load ptr, ptr %4, align 8
  %6 = getelementptr inbounds float, ptr %5, i64 0
  %7 = load float, ptr %6, align 4
  %8 = load ptr, ptr %3, align 8
  %9 = getelementptr inbounds float, ptr %8, i64 0
  store float %7, ptr %9, align 4
  %10 = load ptr, ptr %4, align 8
  %11 = getelementptr inbounds float, ptr %10, i64 1
  %12 = load float, ptr %11, align 4
  %13 = load ptr, ptr %3, align 8
  %14 = getelementptr inbounds float, ptr %13, i64 1
  store float %12, ptr %14, align 4
  %15 = load ptr, ptr %4, align 8
  %16 = getelementptr inbounds float, ptr %15, i64 2
  %17 = load float, ptr %16, align 4
  %18 = load ptr, ptr %3, align 8
  %19 = getelementptr inbounds float, ptr %18, i64 2
  store float %17, ptr %19, align 4
  ret void
}

; Function Attrs: mustprogress uwtable
define void @_ZNK11dtTileCache17getObstacleBoundsEPK19dtTileCacheObstaclePfS3_(ptr noundef nonnull align 8 dereferenceable(912) %0, ptr noundef %1, ptr noundef %2, ptr noundef %3) #0 align 2 {
  %5 = alloca ptr, align 8
  %6 = alloca ptr, align 8
  %7 = alloca ptr, align 8
  %8 = alloca ptr, align 8
  %9 = alloca ptr, align 8
  %10 = alloca ptr, align 8
  %11 = alloca float, align 4
  store ptr %0, ptr %5, align 8
  store ptr %1, ptr %6, align 8
  store ptr %2, ptr %7, align 8
  store ptr %3, ptr %8, align 8
  %12 = load ptr, ptr %6, align 8
  %13 = getelementptr inbounds %struct.dtTileCacheObstacle, ptr %12, i32 0, i32 4
  %14 = load i8, ptr %13, align 2
  %15 = zext i8 %14 to i32
  %16 = icmp eq i32 %15, 0
  br i1 %16, label %17, label %76

17:                                               ; preds = %4
  %18 = load ptr, ptr %6, align 8
  %19 = getelementptr inbounds %struct.dtTileCacheObstacle, ptr %18, i32 0, i32 0
  store ptr %19, ptr %9, align 8
  %20 = load ptr, ptr %9, align 8
  %21 = getelementptr inbounds %struct.dtObstacleCylinder, ptr %20, i32 0, i32 0
  %22 = getelementptr inbounds [3 x float], ptr %21, i64 0, i64 0
  %23 = load float, ptr %22, align 4
  %24 = load ptr, ptr %9, align 8
  %25 = getelementptr inbounds %struct.dtObstacleCylinder, ptr %24, i32 0, i32 1
  %26 = load float, ptr %25, align 4
  %27 = fsub float %23, %26
  %28 = load ptr, ptr %7, align 8
  %29 = getelementptr inbounds float, ptr %28, i64 0
  store float %27, ptr %29, align 4
  %30 = load ptr, ptr %9, align 8
  %31 = getelementptr inbounds %struct.dtObstacleCylinder, ptr %30, i32 0, i32 0
  %32 = getelementptr inbounds [3 x float], ptr %31, i64 0, i64 1
  %33 = load float, ptr %32, align 4
  %34 = load ptr, ptr %7, align 8
  %35 = getelementptr inbounds float, ptr %34, i64 1
  store float %33, ptr %35, align 4
  %36 = load ptr, ptr %9, align 8
  %37 = getelementptr inbounds %struct.dtObstacleCylinder, ptr %36, i32 0, i32 0
  %38 = getelementptr inbounds [3 x float], ptr %37, i64 0, i64 2
  %39 = load float, ptr %38, align 4
  %40 = load ptr, ptr %9, align 8
  %41 = getelementptr inbounds %struct.dtObstacleCylinder, ptr %40, i32 0, i32 1
  %42 = load float, ptr %41, align 4
  %43 = fsub float %39, %42
  %44 = load ptr, ptr %7, align 8
  %45 = getelementptr inbounds float, ptr %44, i64 2
  store float %43, ptr %45, align 4
  %46 = load ptr, ptr %9, align 8
  %47 = getelementptr inbounds %struct.dtObstacleCylinder, ptr %46, i32 0, i32 0
  %48 = getelementptr inbounds [3 x float], ptr %47, i64 0, i64 0
  %49 = load float, ptr %48, align 4
  %50 = load ptr, ptr %9, align 8
  %51 = getelementptr inbounds %struct.dtObstacleCylinder, ptr %50, i32 0, i32 1
  %52 = load float, ptr %51, align 4
  %53 = fadd float %49, %52
  %54 = load ptr, ptr %8, align 8
  %55 = getelementptr inbounds float, ptr %54, i64 0
  store float %53, ptr %55, align 4
  %56 = load ptr, ptr %9, align 8
  %57 = getelementptr inbounds %struct.dtObstacleCylinder, ptr %56, i32 0, i32 0
  %58 = getelementptr inbounds [3 x float], ptr %57, i64 0, i64 1
  %59 = load float, ptr %58, align 4
  %60 = load ptr, ptr %9, align 8
  %61 = getelementptr inbounds %struct.dtObstacleCylinder, ptr %60, i32 0, i32 2
  %62 = load float, ptr %61, align 4
  %63 = fadd float %59, %62
  %64 = load ptr, ptr %8, align 8
  %65 = getelementptr inbounds float, ptr %64, i64 1
  store float %63, ptr %65, align 4
  %66 = load ptr, ptr %9, align 8
  %67 = getelementptr inbounds %struct.dtObstacleCylinder, ptr %66, i32 0, i32 0
  %68 = getelementptr inbounds [3 x float], ptr %67, i64 0, i64 2
  %69 = load float, ptr %68, align 4
  %70 = load ptr, ptr %9, align 8
  %71 = getelementptr inbounds %struct.dtObstacleCylinder, ptr %70, i32 0, i32 1
  %72 = load float, ptr %71, align 4
  %73 = fadd float %69, %72
  %74 = load ptr, ptr %8, align 8
  %75 = getelementptr inbounds float, ptr %74, i64 2
  store float %73, ptr %75, align 4
  br label %168

76:                                               ; preds = %4
  %77 = load ptr, ptr %6, align 8
  %78 = getelementptr inbounds %struct.dtTileCacheObstacle, ptr %77, i32 0, i32 4
  %79 = load i8, ptr %78, align 2
  %80 = zext i8 %79 to i32
  %81 = icmp eq i32 %80, 1
  br i1 %81, label %82, label %93

82:                                               ; preds = %76
  %83 = load ptr, ptr %7, align 8
  %84 = load ptr, ptr %6, align 8
  %85 = getelementptr inbounds %struct.dtTileCacheObstacle, ptr %84, i32 0, i32 0
  %86 = getelementptr inbounds %struct.dtObstacleBox, ptr %85, i32 0, i32 0
  %87 = getelementptr inbounds [3 x float], ptr %86, i64 0, i64 0
  call void @_Z7dtVcopyPfPKf(ptr noundef %83, ptr noundef %87)
  %88 = load ptr, ptr %8, align 8
  %89 = load ptr, ptr %6, align 8
  %90 = getelementptr inbounds %struct.dtTileCacheObstacle, ptr %89, i32 0, i32 0
  %91 = getelementptr inbounds %struct.dtObstacleBox, ptr %90, i32 0, i32 1
  %92 = getelementptr inbounds [3 x float], ptr %91, i64 0, i64 0
  call void @_Z7dtVcopyPfPKf(ptr noundef %88, ptr noundef %92)
  br label %167

93:                                               ; preds = %76
  %94 = load ptr, ptr %6, align 8
  %95 = getelementptr inbounds %struct.dtTileCacheObstacle, ptr %94, i32 0, i32 4
  %96 = load i8, ptr %95, align 2
  %97 = zext i8 %96 to i32
  %98 = icmp eq i32 %97, 2
  br i1 %98, label %99, label %166

99:                                               ; preds = %93
  %100 = load ptr, ptr %6, align 8
  %101 = getelementptr inbounds %struct.dtTileCacheObstacle, ptr %100, i32 0, i32 0
  store ptr %101, ptr %10, align 8
  %102 = load ptr, ptr %10, align 8
  %103 = getelementptr inbounds %struct.dtObstacleOrientedBox, ptr %102, i32 0, i32 1
  %104 = getelementptr inbounds [3 x float], ptr %103, i64 0, i64 0
  %105 = load float, ptr %104, align 4
  %106 = load ptr, ptr %10, align 8
  %107 = getelementptr inbounds %struct.dtObstacleOrientedBox, ptr %106, i32 0, i32 1
  %108 = getelementptr inbounds [3 x float], ptr %107, i64 0, i64 2
  %109 = load float, ptr %108, align 4
  %110 = call noundef float @_Z5dtMaxIfET_S0_S0_(float noundef %105, float noundef %109)
  %111 = fmul float 0x3FF68F5C20000000, %110
  store float %111, ptr %11, align 4
  %112 = load ptr, ptr %10, align 8
  %113 = getelementptr inbounds %struct.dtObstacleOrientedBox, ptr %112, i32 0, i32 0
  %114 = getelementptr inbounds [3 x float], ptr %113, i64 0, i64 0
  %115 = load float, ptr %114, align 4
  %116 = load float, ptr %11, align 4
  %117 = fsub float %115, %116
  %118 = load ptr, ptr %7, align 8
  %119 = getelementptr inbounds float, ptr %118, i64 0
  store float %117, ptr %119, align 4
  %120 = load ptr, ptr %10, align 8
  %121 = getelementptr inbounds %struct.dtObstacleOrientedBox, ptr %120, i32 0, i32 0
  %122 = getelementptr inbounds [3 x float], ptr %121, i64 0, i64 0
  %123 = load float, ptr %122, align 4
  %124 = load float, ptr %11, align 4
  %125 = fadd float %123, %124
  %126 = load ptr, ptr %8, align 8
  %127 = getelementptr inbounds float, ptr %126, i64 0
  store float %125, ptr %127, align 4
  %128 = load ptr, ptr %10, align 8
  %129 = getelementptr inbounds %struct.dtObstacleOrientedBox, ptr %128, i32 0, i32 0
  %130 = getelementptr inbounds [3 x float], ptr %129, i64 0, i64 1
  %131 = load float, ptr %130, align 4
  %132 = load ptr, ptr %10, align 8
  %133 = getelementptr inbounds %struct.dtObstacleOrientedBox, ptr %132, i32 0, i32 1
  %134 = getelementptr inbounds [3 x float], ptr %133, i64 0, i64 1
  %135 = load float, ptr %134, align 4
  %136 = fsub float %131, %135
  %137 = load ptr, ptr %7, align 8
  %138 = getelementptr inbounds float, ptr %137, i64 1
  store float %136, ptr %138, align 4
  %139 = load ptr, ptr %10, align 8
  %140 = getelementptr inbounds %struct.dtObstacleOrientedBox, ptr %139, i32 0, i32 0
  %141 = getelementptr inbounds [3 x float], ptr %140, i64 0, i64 1
  %142 = load float, ptr %141, align 4
  %143 = load ptr, ptr %10, align 8
  %144 = getelementptr inbounds %struct.dtObstacleOrientedBox, ptr %143, i32 0, i32 1
  %145 = getelementptr inbounds [3 x float], ptr %144, i64 0, i64 1
  %146 = load float, ptr %145, align 4
  %147 = fadd float %142, %146
  %148 = load ptr, ptr %8, align 8
  %149 = getelementptr inbounds float, ptr %148, i64 1
  store float %147, ptr %149, align 4
  %150 = load ptr, ptr %10, align 8
  %151 = getelementptr inbounds %struct.dtObstacleOrientedBox, ptr %150, i32 0, i32 0
  %152 = getelementptr inbounds [3 x float], ptr %151, i64 0, i64 2
  %153 = load float, ptr %152, align 4
  %154 = load float, ptr %11, align 4
  %155 = fsub float %153, %154
  %156 = load ptr, ptr %7, align 8
  %157 = getelementptr inbounds float, ptr %156, i64 2
  store float %155, ptr %157, align 4
  %158 = load ptr, ptr %10, align 8
  %159 = getelementptr inbounds %struct.dtObstacleOrientedBox, ptr %158, i32 0, i32 0
  %160 = getelementptr inbounds [3 x float], ptr %159, i64 0, i64 2
  %161 = load float, ptr %160, align 4
  %162 = load float, ptr %11, align 4
  %163 = fadd float %161, %162
  %164 = load ptr, ptr %8, align 8
  %165 = getelementptr inbounds float, ptr %164, i64 2
  store float %163, ptr %165, align 4
  br label %166

166:                                              ; preds = %99, %93
  br label %167

167:                                              ; preds = %166, %82
  br label %168

168:                                              ; preds = %167, %17
  ret void
}