; Function Attrs: mustprogress nofree norecurse nosync nounwind willreturn memory(argmem: readwrite) uwtable
define void @_ZNK11dtTileCache17getObstacleBoundsEPK19dtTileCacheObstaclePfS3_(ptr noundef nonnull readnone align 8 captures(none) dereferenceable(912) %0, ptr noundef readonly captures(none) %1, ptr noundef writeonly captures(none) %2, ptr noundef writeonly captures(none) %3) local_unnamed_addr #19 align 2 {
  %5 = getelementptr inbounds nuw i8, ptr %1, i64 98
  %6 = load i8, ptr %5, align 2
  switch i8 %6, label %75 [
    i8 0, label %7
    i8 1, label %31
    i8 2, label %46
  ]

7:                                                ; preds = %4
  %8 = load float, ptr %1, align 4
  %9 = getelementptr inbounds nuw i8, ptr %1, i64 12
  %10 = load float, ptr %9, align 4
  %11 = fsub float %8, %10
  store float %11, ptr %2, align 4
  %12 = getelementptr inbounds nuw i8, ptr %1, i64 4
  %13 = load float, ptr %12, align 4
  %14 = getelementptr inbounds nuw i8, ptr %2, i64 4
  store float %13, ptr %14, align 4
  %15 = getelementptr inbounds nuw i8, ptr %1, i64 8
  %16 = load float, ptr %15, align 4
  %17 = load float, ptr %9, align 4
  %18 = fsub float %16, %17
  %19 = getelementptr inbounds nuw i8, ptr %2, i64 8
  store float %18, ptr %19, align 4
  %20 = load float, ptr %1, align 4
  %21 = load float, ptr %9, align 4
  %22 = fadd float %20, %21
  store float %22, ptr %3, align 4
  %23 = load float, ptr %12, align 4
  %24 = getelementptr inbounds nuw i8, ptr %1, i64 16
  %25 = load float, ptr %24, align 4
  %26 = fadd float %23, %25
  %27 = getelementptr inbounds nuw i8, ptr %3, i64 4
  store float %26, ptr %27, align 4
  %28 = load float, ptr %15, align 4
  %29 = load float, ptr %9, align 4
  %30 = fadd float %28, %29
  br label %.sink.split

31:                                               ; preds = %4
  %32 = load float, ptr %1, align 4
  store float %32, ptr %2, align 4
  %33 = getelementptr inbounds nuw i8, ptr %1, i64 4
  %34 = load float, ptr %33, align 4
  %35 = getelementptr inbounds nuw i8, ptr %2, i64 4
  store float %34, ptr %35, align 4
  %36 = getelementptr inbounds nuw i8, ptr %1, i64 8
  %37 = load float, ptr %36, align 4
  %38 = getelementptr inbounds nuw i8, ptr %2, i64 8
  store float %37, ptr %38, align 4
  %39 = getelementptr inbounds nuw i8, ptr %1, i64 12
  %40 = load float, ptr %39, align 4
  store float %40, ptr %3, align 4
  %41 = getelementptr inbounds nuw i8, ptr %1, i64 16
  %42 = load float, ptr %41, align 4
  %43 = getelementptr inbounds nuw i8, ptr %3, i64 4
  store float %42, ptr %43, align 4
  %44 = getelementptr inbounds nuw i8, ptr %1, i64 20
  %45 = load float, ptr %44, align 4
  br label %.sink.split

46:                                               ; preds = %4
  %47 = getelementptr inbounds nuw i8, ptr %1, i64 12
  %48 = load float, ptr %47, align 4
  %49 = getelementptr inbounds nuw i8, ptr %1, i64 20
  %50 = load float, ptr %49, align 4
  %51 = fcmp ogt float %48, %50
  %52 = select i1 %51, float %48, float %50
  %53 = fmul float %52, 0x3FF68F5C20000000
  %54 = load float, ptr %1, align 4
  %55 = fsub float %54, %53
  store float %55, ptr %2, align 4
  %56 = load float, ptr %1, align 4
  %57 = fadd float %56, %53
  store float %57, ptr %3, align 4
  %58 = getelementptr inbounds nuw i8, ptr %1, i64 4
  %59 = load float, ptr %58, align 4
  %60 = getelementptr inbounds nuw i8, ptr %1, i64 16
  %61 = load float, ptr %60, align 4
  %62 = fsub float %59, %61
  %63 = getelementptr inbounds nuw i8, ptr %2, i64 4
  store float %62, ptr %63, align 4
  %64 = load float, ptr %58, align 4
  %65 = load float, ptr %60, align 4
  %66 = fadd float %64, %65
  %67 = getelementptr inbounds nuw i8, ptr %3, i64 4
  store float %66, ptr %67, align 4
  %68 = getelementptr inbounds nuw i8, ptr %1, i64 8
  %69 = load float, ptr %68, align 4
  %70 = fsub float %69, %53
  %71 = getelementptr inbounds nuw i8, ptr %2, i64 8
  store float %70, ptr %71, align 4
  %72 = load float, ptr %68, align 4
  %73 = fadd float %53, %72
  br label %.sink.split

.sink.split:                                      ; preds = %7, %46, %31
  %.sink = phi float [ %45, %31 ], [ %73, %46 ], [ %30, %7 ]
  %74 = getelementptr inbounds nuw i8, ptr %3, i64 8
  store float %.sink, ptr %74, align 4
  br label %75

75:                                               ; preds = %.sink.split, %4
  ret void
}